target datalayout = "e-m:e-p270:32:32-p271:32:32-p272:64:64-i64:64-i128:128-f80:128-n8:16:32:64-S128"
target triple = "x86_64-pc-linux-gnu"

%"struct.Luau::TypePackVar" = type { %"class.Luau::Variant", i8, ptr }
%"class.Luau::Variant" = type { i32, [4 x i8], [64 x i8] }
%"struct.Luau::TypePackIterator" = type { ptr, ptr, i64, ptr }
%"class.std::optional" = type { %"struct.std::_Optional_base" }
%"struct.std::_Optional_base" = type { %"struct.std::_Optional_payload" }
%"struct.std::_Optional_payload" = type { %"struct.std::_Optional_payload_base.base", [7 x i8] }
%"struct.std::_Optional_payload_base.base" = type <{ %"union.std::_Optional_payload_base<const Luau::TypePackVar *>::_Storage", i8 }>
%"union.std::_Optional_payload_base<const Luau::TypePackVar *>::_Storage" = type { ptr }
%"struct.Luau::TypePack" = type { %"class.std::vector.9", %"class.std::optional" }
%"class.std::vector.9" = type { %"struct.std::_Vector_base.10" }
%"struct.std::_Vector_base.10" = type { %"struct.std::_Vector_base<const Luau::Type *, std::allocator<const Luau::Type *>>::_Vector_impl" }
%"struct.std::_Vector_base<const Luau::Type *, std::allocator<const Luau::Type *>>::_Vector_impl" = type { %"struct.std::_Vector_base<const Luau::Type *, std::allocator<const Luau::Type *>>::_Vector_impl_data" }
%"struct.std::_Vector_base<const Luau::Type *, std::allocator<const Luau::Type *>>::_Vector_impl_data" = type { ptr, ptr, ptr }
%"struct.std::_Optional_payload_base" = type <{ %"union.std::_Optional_payload_base<const Luau::TypePackVar *>::_Storage", i8, [7 x i8] }>
%"struct.Luau::PendingTypePack" = type { %"struct.Luau::TypePackVar" }

; Function Attrs: mustprogress nounwind uwtable
define linkonce_odr dso_local noundef ptr @_ZN4Luau7VariantIJNS_9Unifiable5BoundIPKNS_11TypePackVarEEENS1_5ErrorIS5_EENS_12FreeTypePackENS_15GenericTypePackENS_8TypePackENS_16VariadicTypePackENS_15BlockedTypePackENS_28TypeFunctionInstanceTypePackEEE6get_ifISB_EEPT_v(ptr noundef nonnull align 8 dereferenceable(72) %0) #7 comdat align 2 {
  %2 = alloca ptr, align 8
  %3 = alloca i32, align 4
  store ptr %0, ptr %2, align 8, !tbaa !48
  %4 = load ptr, ptr %2, align 8
  call void @llvm.lifetime.start.p0(i64 4, ptr %3) #17
  store i32 4, ptr %3, align 4, !tbaa !4
  %5 = getelementptr inbounds nuw %"class.Luau::Variant", ptr %4, i32 0, i32 0
  %6 = load i32, ptr %5, align 8, !tbaa !55
  %7 = icmp eq i32 4, %6
  br i1 %7, label %8, label %10

8:                                                ; preds = %1
  %9 = getelementptr inbounds nuw %"class.Luau::Variant", ptr %4, i32 0, i32 2
  br label %11

10:                                               ; preds = %1
  br label %11

11:                                               ; preds = %10, %8
  %12 = phi ptr [ %9, %8 ], [ null, %10 ]
  call void @llvm.lifetime.end.p0(i64 4, ptr %3) #17
  ret ptr %12
}

; Function Attrs: mustprogress uwtable
define linkonce_odr dso_local noundef ptr @_ZN4Luau6get_ifINS_8TypePackEJNS_9Unifiable5BoundIPKNS_11TypePackVarEEENS2_5ErrorIS6_EENS_12FreeTypePackENS_15GenericTypePackES1_NS_16VariadicTypePackENS_15BlockedTypePackENS_28TypeFunctionInstanceTypePackEEEEPT_PNS_7VariantIJDpT0_EEE(ptr noundef %0) #2 comdat {
  %2 = alloca ptr, align 8
  store ptr %0, ptr %2, align 8, !tbaa !48
  %3 = load ptr, ptr %2, align 8, !tbaa !48
  %4 = icmp ne ptr %3, null
  br i1 %4, label %5, label %8

5:                                                ; preds = %1
  %6 = load ptr, ptr %2, align 8, !tbaa !48
  %7 = call noundef ptr @_ZN4Luau7VariantIJNS_9Unifiable5BoundIPKNS_11TypePackVarEEENS1_5ErrorIS5_EENS_12FreeTypePackENS_15GenericTypePackENS_8TypePackENS_16VariadicTypePackENS_15BlockedTypePackENS_28TypeFunctionInstanceTypePackEEE6get_ifISB_EEPT_v(ptr noundef nonnull align 8 dereferenceable(72) %6)
  br label %9

8:                                                ; preds = %1
  br label %9

9:                                                ; preds = %8, %5
  %10 = phi ptr [ %7, %5 ], [ null, %8 ]
  ret ptr %10
}

; Function Attrs: mustprogress nounwind uwtable
define dso_local noundef ptr @_ZN4Luau9asMutableEPKNS_11TypePackVarE(ptr noundef %0) #7 {
  %2 = alloca ptr, align 8
  store ptr %0, ptr %2, align 8, !tbaa !46
  %3 = load ptr, ptr %2, align 8, !tbaa !46
  ret ptr %3
}

; Function Attrs: mustprogress nounwind uwtable
define linkonce_odr dso_local noundef nonnull align 8 dereferenceable(8) ptr @_ZNKSt22_Optional_payload_baseIPKN4Luau11TypePackVarEE6_M_getEv(ptr noundef nonnull align 8 dereferenceable(9) %0) #7 comdat align 2 {
  %2 = alloca ptr, align 8
  store ptr %0, ptr %2, align 8, !tbaa !176
  %3 = load ptr, ptr %2, align 8
  %4 = getelementptr inbounds nuw %"struct.std::_Optional_payload_base", ptr %3, i32 0, i32 0
  ret ptr %4
}

; Function Attrs: mustprogress uwtable
define linkonce_odr dso_local noundef ptr @_ZN4Luau10getMutableINS_8TypePackEEEPT_PKNS_11TypePackVarE(ptr noundef %0) #2 comdat {
  %2 = alloca ptr, align 8
  store ptr %0, ptr %2, align 8, !tbaa !46
  %3 = load ptr, ptr %2, align 8, !tbaa !46
  %4 = call noundef ptr @_ZN4Luau9asMutableEPKNS_11TypePackVarE(ptr noundef %3)
  %5 = getelementptr inbounds nuw %"struct.Luau::TypePackVar", ptr %4, i32 0, i32 0
  %6 = call noundef ptr @_ZN4Luau6get_ifINS_8TypePackEJNS_9Unifiable5BoundIPKNS_11TypePackVarEEENS2_5ErrorIS6_EENS_12FreeTypePackENS_15GenericTypePackES1_NS_16VariadicTypePackENS_15BlockedTypePackENS_28TypeFunctionInstanceTypePackEEEEPT_PNS_7VariantIJDpT0_EEE(ptr noundef %5)
  ret ptr %6
}

; Function Attrs: mustprogress uwtable
define linkonce_odr dso_local noundef ptr @_ZN4Luau10getMutableINS_8TypePackEEEPT_PNS_15PendingTypePackE(ptr noundef %0) #2 comdat {
  %2 = alloca ptr, align 8
  store ptr %0, ptr %2, align 8, !tbaa !86
  %3 = load ptr, ptr %2, align 8, !tbaa !86
  %4 = getelementptr inbounds nuw %"struct.Luau::PendingTypePack", ptr %3, i32 0, i32 0
  %5 = call noundef ptr @_ZN4Luau10getMutableINS_8TypePackEEEPT_PKNS_11TypePackVarE(ptr noundef %4)
  ret ptr %5
}

; Function Attrs: mustprogress nounwind uwtable
define linkonce_odr dso_local noundef nonnull align 8 dereferenceable(8) ptr @_ZNKSt19_Optional_base_implIPKN4Luau11TypePackVarESt14_Optional_baseIS3_Lb1ELb1EEE6_M_getEv(ptr noundef nonnull align 1 dereferenceable(1) %0) #7 comdat align 2 {
  %2 = alloca ptr, align 8
  store ptr %0, ptr %2, align 8, !tbaa !172
  %3 = load ptr, ptr %2, align 8
  br label %4

4:                                                ; preds = %1
  br label %5

5:                                                ; preds = %4
  br label %6

6:                                                ; preds = %5
  %7 = getelementptr inbounds nuw %"struct.std::_Optional_base", ptr %3, i32 0, i32 0
  %8 = call noundef nonnull align 8 dereferenceable(8) ptr @_ZNKSt22_Optional_payload_baseIPKN4Luau11TypePackVarEE6_M_getEv(ptr noundef nonnull align 8 dereferenceable(9) %7) #17
  ret ptr %8
}

; Function Attrs: mustprogress nounwind uwtable
define linkonce_odr dso_local noundef zeroext i1 @_ZNKSt19_Optional_base_implIPKN4Luau11TypePackVarESt14_Optional_baseIS3_Lb1ELb1EEE13_M_is_engagedEv(ptr noundef nonnull align 1 dereferenceable(1) %0) #7 comdat align 2 {
  %2 = alloca ptr, align 8
  store ptr %0, ptr %2, align 8, !tbaa !172
  %3 = load ptr, ptr %2, align 8
  %4 = getelementptr inbounds nuw %"struct.std::_Optional_base", ptr %3, i32 0, i32 0
  %5 = getelementptr inbounds nuw %"struct.std::_Optional_payload_base", ptr %4, i32 0, i32 1
  %6 = load i8, ptr %5, align 8, !tbaa !174, !range !37, !noundef !38
  %7 = trunc i8 %6 to i1
  ret i1 %7
}

; Function Attrs: mustprogress uwtable
define linkonce_odr dso_local noundef ptr @_ZNK4Luau6TxnLog10getMutableINS_8TypePackEPKNS_11TypePackVarEEEPT_T0_(ptr noundef nonnull align 8 dereferenceable(128) %0, ptr noundef %1) #2 comdat align 2 {
  %3 = alloca ptr, align 8
  %4 = alloca ptr, align 8
  %5 = alloca ptr, align 8
  %6 = alloca ptr, align 8
  %7 = alloca i32, align 4
  store ptr %0, ptr %4, align 8, !tbaa !73
  store ptr %1, ptr %5, align 8, !tbaa !46
  %8 = load ptr, ptr %4, align 8
  call void @llvm.lifetime.start.p0(i64 8, ptr %6) #17
  %9 = load ptr, ptr %5, align 8, !tbaa !46
  %10 = call noundef ptr @_ZNK4Luau6TxnLog7pendingEPKNS_11TypePackVarE(ptr noundef nonnull align 8 dereferenceable(128) %8, ptr noundef %9)
  store ptr %10, ptr %6, align 8, !tbaa !86
  %11 = load ptr, ptr %6, align 8, !tbaa !86
  %12 = icmp ne ptr %11, null
  br i1 %12, label %13, label %16

13:                                               ; preds = %2
  %14 = load ptr, ptr %6, align 8, !tbaa !86
  %15 = call noundef ptr @_ZN4Luau10getMutableINS_8TypePackEEEPT_PNS_15PendingTypePackE(ptr noundef %14)
  store ptr %15, ptr %3, align 8
  store i32 1, ptr %7, align 4
  br label %19

16:                                               ; preds = %2
  %17 = load ptr, ptr %5, align 8, !tbaa !46
  %18 = call noundef ptr @_ZN4Luau10getMutableINS_8TypePackEEEPT_PKNS_11TypePackVarE(ptr noundef %17)
  store ptr %18, ptr %3, align 8
  store i32 1, ptr %7, align 4
  br label %19

19:                                               ; preds = %16, %13
  call void @llvm.lifetime.end.p0(i64 8, ptr %6) #17
  %20 = load ptr, ptr %3, align 8
  ret ptr %20
}

; Function Attrs: mustprogress nounwind uwtable
define linkonce_odr dso_local noundef nonnull align 8 dereferenceable(8) ptr @_ZNKRSt8optionalIPKN4Luau11TypePackVarEEdeEv(ptr noundef nonnull align 8 dereferenceable(16) %0) #7 comdat align 2 {
  %2 = alloca ptr, align 8
  store ptr %0, ptr %2, align 8, !tbaa !84
  %3 = load ptr, ptr %2, align 8
  %4 = call noundef nonnull align 8 dereferenceable(8) ptr @_ZNKSt19_Optional_base_implIPKN4Luau11TypePackVarESt14_Optional_baseIS3_Lb1ELb1EEE6_M_getEv(ptr noundef nonnull align 1 dereferenceable(1) %3) #17
  ret ptr %4
}

; Function Attrs: mustprogress nounwind uwtable
define linkonce_odr dso_local noundef zeroext i1 @_ZNKSt8optionalIPKN4Luau11TypePackVarEEcvbEv(ptr noundef nonnull align 8 dereferenceable(16) %0) #7 comdat align 2 {
  %2 = alloca ptr, align 8
  store ptr %0, ptr %2, align 8, !tbaa !84
  %3 = load ptr, ptr %2, align 8
  %4 = call noundef zeroext i1 @_ZNKSt19_Optional_base_implIPKN4Luau11TypePackVarESt14_Optional_baseIS3_Lb1ELb1EEE13_M_is_engagedEv(ptr noundef nonnull align 1 dereferenceable(1) %3) #17
  ret i1 %4
}

; Function Attrs: mustprogress nounwind uwtable
define linkonce_odr dso_local noundef i64 @_ZNKSt6vectorIPKN4Luau4TypeESaIS3_EE4sizeEv(ptr noundef nonnull align 8 dereferenceable(24) %0) #7 comdat align 2 {
  %2 = alloca ptr, align 8
  store ptr %0, ptr %2, align 8, !tbaa !82
  %3 = load ptr, ptr %2, align 8
  %4 = getelementptr inbounds nuw %"struct.std::_Vector_base.10", ptr %3, i32 0, i32 0
  %5 = getelementptr inbounds nuw %"struct.std::_Vector_base<const Luau::Type *, std::allocator<const Luau::Type *>>::_Vector_impl_data", ptr %4, i32 0, i32 1
  %6 = load ptr, ptr %5, align 8, !tbaa !89
  %7 = getelementptr inbounds nuw %"struct.std::_Vector_base.10", ptr %3, i32 0, i32 0
  %8 = getelementptr inbounds nuw %"struct.std::_Vector_base<const Luau::Type *, std::allocator<const Luau::Type *>>::_Vector_impl_data", ptr %7, i32 0, i32 0
  %9 = load ptr, ptr %8, align 8, !tbaa !93
  %10 = ptrtoint ptr %6 to i64
  %11 = ptrtoint ptr %9 to i64
  %12 = sub i64 %10, %11
  %13 = sdiv exact i64 %12, 8
  ret i64 %13
}

; Function Attrs: mustprogress uwtable
define dso_local noundef nonnull align 8 dereferenceable(32) ptr @_ZN4Luau16TypePackIteratorppEv(ptr noundef nonnull align 8 dereferenceable(32) %0) #2 align 2 {
  %2 = alloca ptr, align 8
  store ptr %0, ptr %2, align 8, !tbaa !71
  %3 = load ptr, ptr %2, align 8
  %4 = getelementptr inbounds nuw %"struct.Luau::TypePackIterator", ptr %3, i32 0, i32 2
  %5 = load i64, ptr %4, align 8, !tbaa !79
  %6 = add i64 %5, 1
  store i64 %6, ptr %4, align 8, !tbaa !79
  br label %7

7:                                                ; preds = %49, %1
  %8 = getelementptr inbounds nuw %"struct.Luau::TypePackIterator", ptr %3, i32 0, i32 1
  %9 = load ptr, ptr %8, align 8, !tbaa !78
  %10 = icmp ne ptr %9, null
  br i1 %10, label %11, label %19

11:                                               ; preds = %7
  %12 = getelementptr inbounds nuw %"struct.Luau::TypePackIterator", ptr %3, i32 0, i32 2
  %13 = load i64, ptr %12, align 8, !tbaa !79
  %14 = getelementptr inbounds nuw %"struct.Luau::TypePackIterator", ptr %3, i32 0, i32 1
  %15 = load ptr, ptr %14, align 8, !tbaa !78
  %16 = getelementptr inbounds nuw %"struct.Luau::TypePack", ptr %15, i32 0, i32 0
  %17 = call noundef i64 @_ZNKSt6vectorIPKN4Luau4TypeESaIS3_EE4sizeEv(ptr noundef nonnull align 8 dereferenceable(24) %16) #17
  %18 = icmp uge i64 %13, %17
  br label %19

19:                                               ; preds = %11, %7
  %20 = phi i1 [ false, %7 ], [ %18, %11 ]
  br i1 %20, label %21, label %53

21:                                               ; preds = %19
  %22 = getelementptr inbounds nuw %"struct.Luau::TypePackIterator", ptr %3, i32 0, i32 1
  %23 = load ptr, ptr %22, align 8, !tbaa !78
  %24 = getelementptr inbounds nuw %"struct.Luau::TypePack", ptr %23, i32 0, i32 1
  %25 = call noundef zeroext i1 @_ZNKSt8optionalIPKN4Luau11TypePackVarEEcvbEv(ptr noundef nonnull align 8 dereferenceable(16) %24) #17
  br i1 %25, label %26, label %35

26:                                               ; preds = %21
  %27 = getelementptr inbounds nuw %"struct.Luau::TypePackIterator", ptr %3, i32 0, i32 3
  %28 = load ptr, ptr %27, align 8, !tbaa !80
  %29 = getelementptr inbounds nuw %"struct.Luau::TypePackIterator", ptr %3, i32 0, i32 1
  %30 = load ptr, ptr %29, align 8, !tbaa !78
  %31 = getelementptr inbounds nuw %"struct.Luau::TypePack", ptr %30, i32 0, i32 1
  %32 = call noundef nonnull align 8 dereferenceable(8) ptr @_ZNKRSt8optionalIPKN4Luau11TypePackVarEEdeEv(ptr noundef nonnull align 8 dereferenceable(16) %31) #17
  %33 = load ptr, ptr %32, align 8, !tbaa !46
  %34 = call noundef ptr @_ZNK4Luau6TxnLog6followEPKNS_11TypePackVarE(ptr noundef nonnull align 8 dereferenceable(128) %28, ptr noundef %33)
  br label %36

35:                                               ; preds = %21
  br label %36

36:                                               ; preds = %35, %26
  %37 = phi ptr [ %34, %26 ], [ null, %35 ]
  %38 = getelementptr inbounds nuw %"struct.Luau::TypePackIterator", ptr %3, i32 0, i32 0
  store ptr %37, ptr %38, align 8, !tbaa !75
  %39 = getelementptr inbounds nuw %"struct.Luau::TypePackIterator", ptr %3, i32 0, i32 0
  %40 = load ptr, ptr %39, align 8, !tbaa !75
  %41 = icmp ne ptr %40, null
  br i1 %41, label %42, label %48

42:                                               ; preds = %36
  %43 = getelementptr inbounds nuw %"struct.Luau::TypePackIterator", ptr %3, i32 0, i32 3
  %44 = load ptr, ptr %43, align 8, !tbaa !80
  %45 = getelementptr inbounds nuw %"struct.Luau::TypePackIterator", ptr %3, i32 0, i32 0
  %46 = load ptr, ptr %45, align 8, !tbaa !75
  %47 = call noundef ptr @_ZNK4Luau6TxnLog10getMutableINS_8TypePackEPKNS_11TypePackVarEEEPT_T0_(ptr noundef nonnull align 8 dereferenceable(128) %44, ptr noundef %46)
  br label %49

48:                                               ; preds = %36
  br label %49

49:                                               ; preds = %48, %42
  %50 = phi ptr [ %47, %42 ], [ null, %48 ]
  %51 = getelementptr inbounds nuw %"struct.Luau::TypePackIterator", ptr %3, i32 0, i32 1
  store ptr %50, ptr %51, align 8, !tbaa !78
  %52 = getelementptr inbounds nuw %"struct.Luau::TypePackIterator", ptr %3, i32 0, i32 2
  store i64 0, ptr %52, align 8, !tbaa !79
  br label %7, !llvm.loop !88

53:                                               ; preds = %19
  ret ptr %3
}