; Function Attrs: mustprogress uwtable
define dso_local noundef nonnull align 8 dereferenceable(32) ptr @_ZN4Luau16TypePackIteratorppEv(ptr noundef nonnull returned align 8 dereferenceable(32) %0) local_unnamed_addr #2 align 2 {
  %2 = getelementptr inbounds nuw i8, ptr %0, i64 16
  %3 = load i64, ptr %2, align 8, !tbaa !98
  %4 = add i64 %3, 1
  %5 = getelementptr inbounds nuw i8, ptr %0, i64 8
  store i64 %4, ptr %2, align 8, !tbaa !98
  %6 = load ptr, ptr %5, align 8, !tbaa !97
  %.not5 = icmp eq ptr %6, null
  br i1 %.not5, label %.critedge, label %.lr.ph

.lr.ph:                                           ; preds = %1
  %7 = getelementptr inbounds nuw i8, ptr %0, i64 24
  %8 = getelementptr inbounds nuw i8, ptr %6, i64 8
  %9 = load ptr, ptr %8, align 8, !tbaa !85
  %10 = load ptr, ptr %6, align 8, !tbaa !81
  %11 = ptrtoint ptr %9 to i64
  %12 = ptrtoint ptr %10 to i64
  %13 = sub i64 %11, %12
  %14 = ashr exact i64 %13, 3
  %.not210 = icmp ult i64 %4, %14
  br i1 %.not210, label %.critedge, label %.lr.ph11

.lr.ph11:                                         ; preds = %.lr.ph, %28
  %15 = phi ptr [ %29, %28 ], [ %6, %.lr.ph ]
  %16 = getelementptr inbounds nuw i8, ptr %15, i64 32
  %17 = load i8, ptr %16, align 8, !tbaa !72, !range !74, !noundef !75
  %18 = trunc nuw i8 %17 to i1
  br i1 %18, label %19, label %.thread

.thread:                                          ; preds = %.lr.ph11
  store ptr null, ptr %0, align 8, !tbaa !92
  br label %.thread8

19:                                               ; preds = %.lr.ph11
  %20 = getelementptr inbounds nuw i8, ptr %15, i64 24
  %21 = load ptr, ptr %7, align 8, !tbaa !96
  %22 = load ptr, ptr %20, align 8, !tbaa !76
  %23 = tail call noundef ptr @_ZNK4Luau6TxnLog6followEPKNS_11TypePackVarE(ptr noundef nonnull align 8 dereferenceable(128) %21, ptr noundef %22)
  store ptr %23, ptr %0, align 8, !tbaa !92
  %.not3 = icmp eq ptr %23, null
  br i1 %.not3, label %.thread8, label %_ZNK4Luau6TxnLog10getMutableINS_8TypePackEPKNS_11TypePackVarEEEPT_T0_.exit

_ZNK4Luau6TxnLog10getMutableINS_8TypePackEPKNS_11TypePackVarEEEPT_T0_.exit: ; preds = %19
  %24 = load ptr, ptr %7, align 8, !tbaa !96
  %25 = tail call noundef ptr @_ZNK4Luau6TxnLog7pendingEPKNS_11TypePackVarE(ptr noundef nonnull align 8 dereferenceable(128) %24, ptr noundef nonnull %23)
  %.not.i = icmp eq ptr %25, null
  %spec.select = select i1 %.not.i, ptr %23, ptr %25
  %26 = load i32, ptr %spec.select, align 8, !tbaa !49
  %27 = icmp eq i32 %26, 4
  br i1 %27, label %28, label %.thread8

.thread8:                                         ; preds = %_ZNK4Luau6TxnLog10getMutableINS_8TypePackEPKNS_11TypePackVarEEEPT_T0_.exit, %19, %.thread
  tail call void @llvm.memset.p0.i64(ptr noundef nonnull align 8 dereferenceable(16) %5, i8 0, i64 16, i1 false)
  br label %.critedge

28:                                               ; preds = %_ZNK4Luau6TxnLog10getMutableINS_8TypePackEPKNS_11TypePackVarEEEPT_T0_.exit
  %29 = getelementptr inbounds nuw i8, ptr %spec.select, i64 8
  store ptr %29, ptr %5, align 8, !tbaa !97
  store i64 0, ptr %2, align 8, !tbaa !98
  %30 = getelementptr inbounds nuw i8, ptr %spec.select, i64 16
  %31 = load ptr, ptr %30, align 8, !tbaa !85
  %32 = load ptr, ptr %29, align 8, !tbaa !81
  %.not2.not = icmp eq ptr %31, %32
  br i1 %.not2.not, label %.lr.ph11, label %.critedge, !llvm.loop !86

.critedge:                                        ; preds = %28, %.lr.ph, %.thread8, %1
  ret ptr %0
}